target datalayout = "e-m:e-p270:32:32-p271:32:32-p272:64:64-i64:64-i128:128-f80:128-n8:16:32:64-S128"
target triple = "x86_64-pc-linux-gnu"

%struct.ident_t = type { i32, i32, i32, i32, ptr }
%"struct.faiss::Index" = type <{ ptr, i32, [4 x i8], i64, i8, i8, [2 x i8], i32, float, [4 x i8] }>

@1 = private unnamed_addr constant %struct.ident_t { i32 0, i32 514, i32 0, i32 22, ptr @0 }, align 8

; Function Attrs: noinline norecurse nounwind uwtable
define internal void @_ZNK5faiss5Index13reconstruct_nEllPf.omp_outlined(ptr noalias noundef %0, ptr noalias noundef %1, ptr noundef nonnull align 8 dereferenceable(8) %2, ptr noundef %3, ptr noundef nonnull align 8 dereferenceable(8) %4, ptr noundef nonnull align 8 dereferenceable(8) %5) #15 personality ptr @__gxx_personality_v0 {
  %7 = alloca ptr, align 8
  %8 = alloca ptr, align 8
  %9 = alloca ptr, align 8
  %10 = alloca ptr, align 8
  %11 = alloca ptr, align 8
  %12 = alloca ptr, align 8
  %13 = alloca i64, align 8
  %14 = alloca i64, align 8
  %15 = alloca i64, align 8
  %16 = alloca i64, align 8
  %17 = alloca i64, align 8
  %18 = alloca i64, align 8
  %19 = alloca i64, align 8
  %20 = alloca i32, align 4
  %21 = alloca i64, align 8
  store ptr %0, ptr %7, align 8, !tbaa !83
  store ptr %1, ptr %8, align 8, !tbaa !83
  store ptr %2, ptr %9, align 8, !tbaa !13
  store ptr %3, ptr %10, align 8, !tbaa !4
  store ptr %4, ptr %11, align 8, !tbaa !13
  store ptr %5, ptr %12, align 8, !tbaa !78
  %22 = load ptr, ptr %9, align 8, !tbaa !13
  %23 = load ptr, ptr %10, align 8, !tbaa !4
  %24 = load ptr, ptr %11, align 8, !tbaa !13
  %25 = load ptr, ptr %12, align 8, !tbaa !78
  call void @llvm.lifetime.start.p0(i64 8, ptr %13) #16
  call void @llvm.lifetime.start.p0(i64 8, ptr %14) #16
  %26 = load i64, ptr %22, align 8, !tbaa !9
  store i64 %26, ptr %14, align 8, !tbaa !9
  call void @llvm.lifetime.start.p0(i64 8, ptr %15) #16
  %27 = load i64, ptr %14, align 8, !tbaa !9
  %28 = sub nsw i64 %27, 0
  %29 = sdiv i64 %28, 1
  %30 = sub nsw i64 %29, 1
  store i64 %30, ptr %15, align 8, !tbaa !9
  call void @llvm.lifetime.start.p0(i64 8, ptr %16) #16
  store i64 0, ptr %16, align 8, !tbaa !9
  call void @llvm.lifetime.end.p0(i64 8, ptr %16) #16
  %31 = load i64, ptr %14, align 8, !tbaa !9
  %32 = icmp slt i64 0, %31
  br i1 %32, label %33, label %78

33:                                               ; preds = %6
  call void @llvm.lifetime.start.p0(i64 8, ptr %17) #16
  store i64 0, ptr %17, align 8, !tbaa !9
  call void @llvm.lifetime.start.p0(i64 8, ptr %18) #16
  %34 = load i64, ptr %15, align 8, !tbaa !9
  store i64 %34, ptr %18, align 8, !tbaa !9
  call void @llvm.lifetime.start.p0(i64 8, ptr %19) #16
  store i64 1, ptr %19, align 8, !tbaa !9
  call void @llvm.lifetime.start.p0(i64 4, ptr %20) #16
  store i32 0, ptr %20, align 4, !tbaa !25
  call void @llvm.lifetime.start.p0(i64 8, ptr %21) #16
  %35 = load ptr, ptr %7, align 8
  %36 = load i32, ptr %35, align 4, !tbaa !25
  call void @__kmpc_for_static_init_8(ptr @1, i32 %36, i32 34, ptr %20, ptr %17, ptr %18, ptr %19, i64 1, i64 1)
  %37 = load i64, ptr %18, align 8, !tbaa !9
  %38 = load i64, ptr %15, align 8, !tbaa !9
  %39 = icmp sgt i64 %37, %38
  br i1 %39, label %40, label %42

40:                                               ; preds = %33
  %41 = load i64, ptr %15, align 8, !tbaa !9
  br label %44

42:                                               ; preds = %33
  %43 = load i64, ptr %18, align 8, !tbaa !9
  br label %44

44:                                               ; preds = %42, %40
  %45 = phi i64 [ %41, %40 ], [ %43, %42 ]
  store i64 %45, ptr %18, align 8, !tbaa !9
  %46 = load i64, ptr %17, align 8, !tbaa !9
  store i64 %46, ptr %13, align 8, !tbaa !9
  br label %47

47:                                               ; preds = %71, %44
  %48 = load i64, ptr %13, align 8, !tbaa !9
  %49 = load i64, ptr %18, align 8, !tbaa !9
  %50 = icmp sle i64 %48, %49
  br i1 %50, label %52, label %51

51:                                               ; preds = %47
  br label %74

52:                                               ; preds = %47
  %53 = load i64, ptr %13, align 8, !tbaa !9
  %54 = mul nsw i64 %53, 1
  %55 = add nsw i64 0, %54
  store i64 %55, ptr %21, align 8, !tbaa !9
  %56 = load i64, ptr %24, align 8, !tbaa !9
  %57 = load i64, ptr %21, align 8, !tbaa !9
  %58 = add nsw i64 %56, %57
  %59 = load ptr, ptr %25, align 8, !tbaa !11
  %60 = load i64, ptr %21, align 8, !tbaa !9
  %61 = getelementptr inbounds nuw %"struct.faiss::Index", ptr %23, i32 0, i32 1
  %62 = load i32, ptr %61, align 8, !tbaa !27
  %63 = sext i32 %62 to i64
  %64 = mul nsw i64 %60, %63
  %65 = getelementptr inbounds float, ptr %59, i64 %64
  %66 = load ptr, ptr %23, align 8, !tbaa !21
  %67 = getelementptr inbounds ptr, ptr %66, i64 10
  %68 = load ptr, ptr %67, align 8
  invoke void %68(ptr noundef nonnull align 8 dereferenceable(36) %23, i64 noundef %58, ptr noundef %65)
          to label %69 unwind label %79

69:                                               ; preds = %52
  br label %70

70:                                               ; preds = %69
  br label %71

71:                                               ; preds = %70
  %72 = load i64, ptr %13, align 8, !tbaa !9
  %73 = add nsw i64 %72, 1
  store i64 %73, ptr %13, align 8, !tbaa !9
  br label %47

74:                                               ; preds = %51
  br label %75

75:                                               ; preds = %74
  %76 = load ptr, ptr %7, align 8
  %77 = load i32, ptr %76, align 4, !tbaa !25
  call void @__kmpc_for_static_fini(ptr @1, i32 %77)
  call void @llvm.lifetime.end.p0(i64 8, ptr %21) #16
  call void @llvm.lifetime.end.p0(i64 4, ptr %20) #16
  call void @llvm.lifetime.end.p0(i64 8, ptr %19) #16
  call void @llvm.lifetime.end.p0(i64 8, ptr %18) #16
  call void @llvm.lifetime.end.p0(i64 8, ptr %17) #16
  br label %78

78:                                               ; preds = %75, %6
  call void @llvm.lifetime.end.p0(i64 8, ptr %15) #16
  call void @llvm.lifetime.end.p0(i64 8, ptr %14) #16
  call void @llvm.lifetime.end.p0(i64 8, ptr %13) #16
  ret void

79:                                               ; preds = %52
  %80 = landingpad { ptr, i32 }
          catch ptr null
  %81 = extractvalue { ptr, i32 } %80, 0
  call void @__clang_call_terminate(ptr %81) #20
  unreachable
}