; Function Attrs: noinline norecurse nounwind uwtable
define internal void @_ZNK5faiss5Index13reconstruct_nEllPf.omp_outlined(ptr noalias noundef readonly captures(none) %0, ptr noalias readnone captures(none) %1, ptr noundef nonnull readonly align 8 captures(none) dereferenceable(8) %2, ptr noundef %3, ptr noundef nonnull readonly align 8 captures(none) dereferenceable(8) %4, ptr noundef nonnull readonly align 8 captures(none) dereferenceable(8) %5) #18 personality ptr @__gxx_personality_v0 {
  %7 = alloca i64, align 8
  %8 = alloca i64, align 8
  %9 = alloca i64, align 8
  %10 = alloca i32, align 4
  %11 = load i64, ptr %2, align 8, !tbaa !10
  %12 = icmp sgt i64 %11, 0
  br i1 %12, label %13, label %34

13:                                               ; preds = %6
  %14 = add nsw i64 %11, -1
  call void @llvm.lifetime.start.p0(i64 8, ptr nonnull %7) #19
  store i64 0, ptr %7, align 8, !tbaa !10
  call void @llvm.lifetime.start.p0(i64 8, ptr nonnull %8) #19
  store i64 %14, ptr %8, align 8, !tbaa !10
  call void @llvm.lifetime.start.p0(i64 8, ptr nonnull %9) #19
  store i64 1, ptr %9, align 8, !tbaa !10
  call void @llvm.lifetime.start.p0(i64 4, ptr nonnull %10) #19
  store i32 0, ptr %10, align 4, !tbaa !24
  %15 = load i32, ptr %0, align 4, !tbaa !24
  call void @__kmpc_for_static_init_8(ptr nonnull @1, i32 %15, i32 34, ptr nonnull %10, ptr nonnull %7, ptr nonnull %8, ptr nonnull %9, i64 1, i64 1)
  %16 = load i64, ptr %8, align 8, !tbaa !10
  %17 = call i64 @llvm.smin.i64(i64 %16, i64 %14)
  store i64 %17, ptr %8, align 8, !tbaa !10
  %18 = load i64, ptr %7, align 8, !tbaa !10
  %.not15 = icmp sgt i64 %18, %17
  br i1 %.not15, label %._crit_edge, label %.lr.ph

.lr.ph:                                           ; preds = %13
  %19 = getelementptr inbounds nuw i8, ptr %3, i64 8
  br label %20

20:                                               ; preds = %.lr.ph, %31
  %.016 = phi i64 [ %18, %.lr.ph ], [ %32, %31 ]
  %21 = load i64, ptr %4, align 8, !tbaa !10
  %22 = add nsw i64 %21, %.016
  %23 = load ptr, ptr %5, align 8, !tbaa !22
  %24 = load i32, ptr %19, align 8, !tbaa !26
  %25 = sext i32 %24 to i64
  %26 = mul nsw i64 %.016, %25
  %27 = getelementptr inbounds float, ptr %23, i64 %26
  %28 = load ptr, ptr %3, align 8, !tbaa !18
  %29 = getelementptr inbounds nuw i8, ptr %28, i64 80
  %30 = load ptr, ptr %29, align 8
  invoke void %30(ptr noundef nonnull align 8 dereferenceable(36) %3, i64 noundef %22, ptr noundef %27)
          to label %31 unwind label %35

31:                                               ; preds = %20
  %32 = add nsw i64 %.016, 1
  %33 = load i64, ptr %8, align 8, !tbaa !10
  %.not.not = icmp slt i64 %.016, %33
  br i1 %.not.not, label %20, label %._crit_edge

._crit_edge:                                      ; preds = %31, %13
  call void @__kmpc_for_static_fini(ptr nonnull @1, i32 %15)
  call void @llvm.lifetime.end.p0(i64 4, ptr nonnull %10) #19
  call void @llvm.lifetime.end.p0(i64 8, ptr nonnull %9) #19
  call void @llvm.lifetime.end.p0(i64 8, ptr nonnull %8) #19
  call void @llvm.lifetime.end.p0(i64 8, ptr nonnull %7) #19
  br label %34

34:                                               ; preds = %._crit_edge, %6
  ret void

35:                                               ; preds = %20
  %36 = landingpad { ptr, i32 }
          catch ptr null
  %37 = extractvalue { ptr, i32 } %36, 0
  call void @__clang_call_terminate(ptr %37) #27
  unreachable
}